target datalayout = "e-m:e-p270:32:32-p271:32:32-p272:64:64-i64:64-i128:128-f80:128-n8:16:32:64-S128"
target triple = "x86_64-unknown-linux-gnu"

%struct.BrotliDistanceCodeLimit = type { i32, i32 }
%struct.BrotliDistanceParams = type { i32, i32, i32, i32, i64 }

; Function Attrs: nounwind uwtable
define hidden void @BrotliInitDistanceParams(ptr noundef %dist_params, i32 noundef %npostfix, i32 noundef %ndirect, i32 noundef %large_window) #0 {
entry:
  %retval.i = alloca %struct.BrotliDistanceCodeLimit, align 4
  %max_distance.addr.i = alloca i32, align 4
  %npostfix.addr.i = alloca i32, align 4
  %ndirect.addr.i = alloca i32, align 4
  %forbidden_distance.i = alloca i32, align 4
  %offset.i = alloca i32, align 4
  %ndistbits.i = alloca i32, align 4
  %tmp.i = alloca i32, align 4
  %half.i = alloca i32, align 4
  %group.i = alloca i32, align 4
  %postfix.i = alloca i32, align 4
  %extra.i = alloca i32, align 4
  %start.i = alloca i32, align 4
  %dist_params.addr = alloca ptr, align 8
  %npostfix.addr = alloca i32, align 4
  %ndirect.addr = alloca i32, align 4
  %large_window.addr = alloca i32, align 4
  %alphabet_size_max = alloca i32, align 4
  %alphabet_size_limit = alloca i32, align 4
  %max_distance = alloca i32, align 4
  %limit = alloca %struct.BrotliDistanceCodeLimit, align 4
  store ptr %dist_params, ptr %dist_params.addr, align 8
  store i32 %npostfix, ptr %npostfix.addr, align 4
  store i32 %ndirect, ptr %ndirect.addr, align 4
  store i32 %large_window, ptr %large_window.addr, align 4
  %0 = load i32, ptr %npostfix.addr, align 4
  %1 = load ptr, ptr %dist_params.addr, align 8
  %distance_postfix_bits = getelementptr inbounds %struct.BrotliDistanceParams, ptr %1, i32 0, i32 0
  store i32 %0, ptr %distance_postfix_bits, align 8
  %2 = load i32, ptr %ndirect.addr, align 4
  %3 = load ptr, ptr %dist_params.addr, align 8
  %num_direct_distance_codes = getelementptr inbounds %struct.BrotliDistanceParams, ptr %3, i32 0, i32 1
  store i32 %2, ptr %num_direct_distance_codes, align 4
  %4 = load i32, ptr %ndirect.addr, align 4
  %add = add i32 16, %4
  %5 = load i32, ptr %npostfix.addr, align 4
  %add1 = add i32 %5, 1
  %shl = shl i32 24, %add1
  %add2 = add i32 %add, %shl
  store i32 %add2, ptr %alphabet_size_max, align 4
  %6 = load i32, ptr %alphabet_size_max, align 4
  store i32 %6, ptr %alphabet_size_limit, align 4
  %7 = load i32, ptr %ndirect.addr, align 4
  %8 = load i32, ptr %npostfix.addr, align 4
  %add3 = add i32 24, %8
  %add4 = add i32 %add3, 2
  %shl5 = shl i32 1, %add4
  %add6 = add i32 %7, %shl5
  %9 = load i32, ptr %npostfix.addr, align 4
  %add7 = add i32 %9, 2
  %shl8 = shl i32 1, %add7
  %sub = sub i32 %add6, %shl8
  store i32 %sub, ptr %max_distance, align 4
  %10 = load i32, ptr %large_window.addr, align 4
  %tobool = icmp ne i32 %10, 0
  br i1 %tobool, label %if.then, label %if.end

if.then:                                          ; preds = %entry
  %11 = load i32, ptr %npostfix.addr, align 4
  %12 = load i32, ptr %ndirect.addr, align 4
  store i32 2147483644, ptr %max_distance.addr.i, align 4
  store i32 %11, ptr %npostfix.addr.i, align 4
  store i32 %12, ptr %ndirect.addr.i, align 4
  %13 = load i32, ptr %max_distance.addr.i, align 4
  %14 = load i32, ptr %ndirect.addr.i, align 4
  %cmp.i = icmp ule i32 %13, %14
  br i1 %cmp.i, label %if.then.i, label %if.else.i

if.then.i:                                        ; preds = %if.then
  %15 = load i32, ptr %max_distance.addr.i, align 4
  %add.i = add i32 %15, 16
  store i32 %add.i, ptr %retval.i, align 4
  %16 = load i32, ptr %max_distance.addr.i, align 4
  %max_distance1.i = getelementptr inbounds %struct.BrotliDistanceCodeLimit, ptr %retval.i, i32 0, i32 1
  store i32 %16, ptr %max_distance1.i, align 4
  br label %BrotliCalculateDistanceCodeLimit.exit

if.else.i:                                        ; preds = %if.then
  %17 = load i32, ptr %max_distance.addr.i, align 4
  %add2.i = add i32 %17, 1
  store i32 %add2.i, ptr %forbidden_distance.i, align 4
  %18 = load i32, ptr %forbidden_distance.i, align 4
  %19 = load i32, ptr %ndirect.addr.i, align 4
  %sub.i = sub i32 %18, %19
  %sub3.i = sub i32 %sub.i, 1
  store i32 %sub3.i, ptr %offset.i, align 4
  store i32 0, ptr %ndistbits.i, align 4
  %20 = load i32, ptr %npostfix.addr.i, align 4
  %shl.i = shl i32 1, %20
  %sub4.i = sub i32 %shl.i, 1
  store i32 %sub4.i, ptr %postfix.i, align 4
  %21 = load i32, ptr %offset.i, align 4
  %22 = load i32, ptr %npostfix.addr.i, align 4
  %shr.i = lshr i32 %21, %22
  %add5.i = add i32 %shr.i, 4
  store i32 %add5.i, ptr %offset.i, align 4
  %23 = load i32, ptr %offset.i, align 4
  %div.i = udiv i32 %23, 2
  store i32 %div.i, ptr %tmp.i, align 4
  br label %while.cond.i

while.cond.i:                                     ; preds = %while.body.i, %if.else.i
  %24 = load i32, ptr %tmp.i, align 4
  %cmp6.i = icmp ne i32 %24, 0
  br i1 %cmp6.i, label %while.body.i, label %while.end.i

while.body.i:                                     ; preds = %while.cond.i
  %25 = load i32, ptr %ndistbits.i, align 4
  %inc.i = add i32 %25, 1
  store i32 %inc.i, ptr %ndistbits.i, align 4
  %26 = load i32, ptr %tmp.i, align 4
  %shr7.i = lshr i32 %26, 1
  store i32 %shr7.i, ptr %tmp.i, align 4
  br label %while.cond.i, !llvm.loop !4

while.end.i:                                      ; preds = %while.cond.i
  %27 = load i32, ptr %ndistbits.i, align 4
  %dec.i = add i32 %27, -1
  store i32 %dec.i, ptr %ndistbits.i, align 4
  %28 = load i32, ptr %offset.i, align 4
  %29 = load i32, ptr %ndistbits.i, align 4
  %shr8.i = lshr i32 %28, %29
  %and.i = and i32 %shr8.i, 1
  store i32 %and.i, ptr %half.i, align 4
  %30 = load i32, ptr %ndistbits.i, align 4
  %sub9.i = sub i32 %30, 1
  %shl10.i = shl i32 %sub9.i, 1
  %31 = load i32, ptr %half.i, align 4
  %or.i = or i32 %shl10.i, %31
  store i32 %or.i, ptr %group.i, align 4
  %32 = load i32, ptr %group.i, align 4
  %cmp11.i = icmp eq i32 %32, 0
  br i1 %cmp11.i, label %if.then12.i, label %if.end.i

if.then12.i:                                      ; preds = %while.end.i
  %33 = load i32, ptr %ndirect.addr.i, align 4
  %add13.i = add i32 %33, 16
  store i32 %add13.i, ptr %retval.i, align 4
  %34 = load i32, ptr %ndirect.addr.i, align 4
  %max_distance15.i = getelementptr inbounds %struct.BrotliDistanceCodeLimit, ptr %retval.i, i32 0, i32 1
  store i32 %34, ptr %max_distance15.i, align 4
  br label %BrotliCalculateDistanceCodeLimit.exit

if.end.i:                                         ; preds = %while.end.i
  %35 = load i32, ptr %group.i, align 4
  %dec16.i = add i32 %35, -1
  store i32 %dec16.i, ptr %group.i, align 4
  %36 = load i32, ptr %group.i, align 4
  %shr17.i = lshr i32 %36, 1
  %add18.i = add i32 %shr17.i, 1
  store i32 %add18.i, ptr %ndistbits.i, align 4
  %37 = load i32, ptr %ndistbits.i, align 4
  %shl19.i = shl i32 1, %37
  %sub20.i = sub i32 %shl19.i, 1
  store i32 %sub20.i, ptr %extra.i, align 4
  %38 = load i32, ptr %ndistbits.i, align 4
  %add21.i = add i32 %38, 1
  %shl22.i = shl i32 1, %add21.i
  %sub23.i = sub i32 %shl22.i, 4
  store i32 %sub23.i, ptr %start.i, align 4
  %39 = load i32, ptr %group.i, align 4
  %and24.i = and i32 %39, 1
  %40 = load i32, ptr %ndistbits.i, align 4
  %shl25.i = shl i32 %and24.i, %40
  %41 = load i32, ptr %start.i, align 4
  %add26.i = add i32 %41, %shl25.i
  store i32 %add26.i, ptr %start.i, align 4
  %42 = load i32, ptr %group.i, align 4
  %43 = load i32, ptr %npostfix.addr.i, align 4
  %shl27.i = shl i32 %42, %43
  %44 = load i32, ptr %postfix.i, align 4
  %or28.i = or i32 %shl27.i, %44
  %45 = load i32, ptr %ndirect.addr.i, align 4
  %add29.i = add i32 %or28.i, %45
  %add30.i = add i32 %add29.i, 16
  %add31.i = add i32 %add30.i, 1
  store i32 %add31.i, ptr %retval.i, align 4
  %46 = load i32, ptr %start.i, align 4
  %47 = load i32, ptr %extra.i, align 4
  %add33.i = add i32 %46, %47
  %48 = load i32, ptr %npostfix.addr.i, align 4
  %shl34.i = shl i32 %add33.i, %48
  %49 = load i32, ptr %postfix.i, align 4
  %add35.i = add i32 %shl34.i, %49
  %50 = load i32, ptr %ndirect.addr.i, align 4
  %add36.i = add i32 %add35.i, %50
  %add37.i = add i32 %add36.i, 1
  %max_distance38.i = getelementptr inbounds %struct.BrotliDistanceCodeLimit, ptr %retval.i, i32 0, i32 1
  store i32 %add37.i, ptr %max_distance38.i, align 4
  br label %BrotliCalculateDistanceCodeLimit.exit

BrotliCalculateDistanceCodeLimit.exit:            ; preds = %if.end.i, %if.then12.i, %if.then.i
  %51 = load i64, ptr %retval.i, align 4
  store i64 %51, ptr %limit, align 4
  %52 = load i32, ptr %ndirect.addr, align 4
  %add9 = add i32 16, %52
  %53 = load i32, ptr %npostfix.addr, align 4
  %add10 = add i32 %53, 1
  %shl11 = shl i32 62, %add10
  %add12 = add i32 %add9, %shl11
  store i32 %add12, ptr %alphabet_size_max, align 4
  %max_alphabet_size = getelementptr inbounds %struct.BrotliDistanceCodeLimit, ptr %limit, i32 0, i32 0
  %54 = load i32, ptr %max_alphabet_size, align 4
  store i32 %54, ptr %alphabet_size_limit, align 4
  %max_distance13 = getelementptr inbounds %struct.BrotliDistanceCodeLimit, ptr %limit, i32 0, i32 1
  %55 = load i32, ptr %max_distance13, align 4
  store i32 %55, ptr %max_distance, align 4
  br label %if.end

if.end:                                           ; preds = %BrotliCalculateDistanceCodeLimit.exit, %entry
  %56 = load i32, ptr %alphabet_size_max, align 4
  %57 = load ptr, ptr %dist_params.addr, align 8
  %alphabet_size_max14 = getelementptr inbounds %struct.BrotliDistanceParams, ptr %57, i32 0, i32 2
  store i32 %56, ptr %alphabet_size_max14, align 8
  %58 = load i32, ptr %alphabet_size_limit, align 4
  %59 = load ptr, ptr %dist_params.addr, align 8
  %alphabet_size_limit15 = getelementptr inbounds %struct.BrotliDistanceParams, ptr %59, i32 0, i32 3
  store i32 %58, ptr %alphabet_size_limit15, align 4
  %60 = load i32, ptr %max_distance, align 4
  %conv = zext i32 %60 to i64
  %61 = load ptr, ptr %dist_params.addr, align 8
  %max_distance16 = getelementptr inbounds %struct.BrotliDistanceParams, ptr %61, i32 0, i32 4
  store i64 %conv, ptr %max_distance16, align 8
  ret void
}