; Function Attrs: nofree norecurse nosync nounwind memory(argmem: write) uwtable
define hidden void @BrotliInitDistanceParams(ptr noundef writeonly captures(none) initializes((0, 8)) %dist_params, i32 noundef %npostfix, i32 noundef %ndirect, i32 noundef %large_window) local_unnamed_addr #0 {
entry:
  store i32 %npostfix, ptr %dist_params, align 8
  %num_direct_distance_codes = getelementptr inbounds nuw i8, ptr %dist_params, i64 4
  store i32 %ndirect, ptr %num_direct_distance_codes, align 4
  %add = add i32 %ndirect, 16
  %add1 = add i32 %npostfix, 1
  %shl = shl i32 24, %add1
  %add2 = add i32 %add, %shl
  %add4 = add i32 %npostfix, 26
  %shl5 = shl nuw i32 1, %add4
  %add6 = add i32 %shl5, %ndirect
  %add7 = add i32 %npostfix, 2
  %shl8.neg = shl nsw i32 -1, %add7
  %sub = add i32 %add6, %shl8.neg
  %tobool.not = icmp eq i32 %large_window, 0
  br i1 %tobool.not, label %if.end, label %if.then

if.then:                                          ; preds = %entry
  %cmp.i = icmp ugt i32 %ndirect, 2147483643
  br i1 %cmp.i, label %BrotliCalculateDistanceCodeLimit.exit, label %if.else.i

if.else.i:                                        ; preds = %if.then
  %sub3.i = sub nuw nsw i32 2147483644, %ndirect
  %notmask = shl nsw i32 -1, %npostfix
  %shr.i = lshr i32 %sub3.i, %npostfix
  %add5.i = add nuw i32 %shr.i, 4
  br label %while.body.i

while.body.i:                                     ; preds = %if.else.i, %while.body.i
  %ndistbits.i.043 = phi i32 [ 0, %if.else.i ], [ %inc.i, %while.body.i ]
  %tmp.i.0.in42 = phi i32 [ %add5.i, %if.else.i ], [ %tmp.i.0, %while.body.i ]
  %tmp.i.0 = lshr i32 %tmp.i.0.in42, 1
  %inc.i = add nuw nsw i32 %ndistbits.i.043, 1
  %cmp6.i.not = icmp ult i32 %tmp.i.0.in42, 4
  br i1 %cmp6.i.not, label %while.end.i, label %while.body.i, !llvm.loop !4

while.end.i:                                      ; preds = %while.body.i
  %shr8.i = lshr i32 %add5.i, %ndistbits.i.043
  %and.i = and i32 %shr8.i, 1
  %sub9.i = shl nuw i32 %inc.i, 1
  %shl10.i = add i32 %sub9.i, -4
  %or.i = or disjoint i32 %and.i, %shl10.i
  %cmp11.i = icmp eq i32 %or.i, 0
  br i1 %cmp11.i, label %BrotliCalculateDistanceCodeLimit.exit, label %if.end.i

if.end.i:                                         ; preds = %while.end.i
  %sub4.i = xor i32 %notmask, -1
  %dec16.i = add i32 %or.i, -1
  %shr17.i = lshr i32 %dec16.i, 1
  %add18.i = add nuw i32 %shr17.i, 1
  %and24.i = and i32 %dec16.i, 1
  %shl25.i = shl nuw i32 %and24.i, %add18.i
  %shl27.i = shl i32 %dec16.i, %npostfix
  %or28.i = or i32 %shl27.i, %sub4.i
  %add29.i = add nuw i32 %ndirect, 17
  %add31.i = add i32 %add29.i, %or28.i
  %0 = shl i32 6, %shr17.i
  %sub20.i = add i32 %0, -5
  %add33.i = add i32 %sub20.i, %shl25.i
  %shl34.i = shl i32 %add33.i, %npostfix
  %add36.i = sub i32 %ndirect, %notmask
  %add37.i = add i32 %add36.i, %shl34.i
  br label %BrotliCalculateDistanceCodeLimit.exit

BrotliCalculateDistanceCodeLimit.exit:            ; preds = %while.end.i, %if.then, %if.end.i
  %retval.i.sroa.0.0 = phi i32 [ %add31.i, %if.end.i ], [ -2147483636, %if.then ], [ %add, %while.end.i ]
  %retval.i.sroa.4.0 = phi i32 [ %add37.i, %if.end.i ], [ 2147483644, %if.then ], [ %ndirect, %while.end.i ]
  %shl11 = shl i32 62, %add1
  %add12 = add i32 %add, %shl11
  br label %if.end

if.end:                                           ; preds = %BrotliCalculateDistanceCodeLimit.exit, %entry
  %alphabet_size_max.0 = phi i32 [ %add12, %BrotliCalculateDistanceCodeLimit.exit ], [ %add2, %entry ]
  %alphabet_size_limit.0 = phi i32 [ %retval.i.sroa.0.0, %BrotliCalculateDistanceCodeLimit.exit ], [ %add2, %entry ]
  %max_distance.0 = phi i32 [ %retval.i.sroa.4.0, %BrotliCalculateDistanceCodeLimit.exit ], [ %sub, %entry ]
  %alphabet_size_max14 = getelementptr inbounds nuw i8, ptr %dist_params, i64 8
  store i32 %alphabet_size_max.0, ptr %alphabet_size_max14, align 8
  %alphabet_size_limit15 = getelementptr inbounds nuw i8, ptr %dist_params, i64 12
  store i32 %alphabet_size_limit.0, ptr %alphabet_size_limit15, align 4
  %conv = zext i32 %max_distance.0 to i64
  %max_distance16 = getelementptr inbounds nuw i8, ptr %dist_params, i64 16
  store i64 %conv, ptr %max_distance16, align 8
  ret void
}